/*
 * Intel ACPI Component Architecture
 * AML Disassembler version 20130823-32 [Sep 16 2013]
 * Copyright (c) 2000 - 2013 Intel Corporation
 * 
 * Disassembly of /Users/holoto/Desktop/Tools/DarwinDumperReports/000_2016-03-22_21-36-20_MacBookPro9,2/DarwinDumper_2.9.9.2_INSYDE_Corp._X64_Cap_holoto/ACPI Tables/AML/BGRT.aml, Tue Mar 22 21:36:50 2016
 *
 * ACPI Data Table [BGRT]
 *
 * Format: [HexOffset DecimalOffset ByteLength]  FieldName : FieldValue
 */

[000h 0000   4]                    Signature : "BGRT"    [Boot Graphics Resource Table]
[004h 0004   4]                 Table Length : 00000038
[008h 0008   1]                     Revision : 01
[009h 0009   1]                     Checksum : D2
[00Ah 0010   6]                       Oem ID : "ACRSYS"
[010h 0016   8]                 Oem Table ID : "ACRPRDCT"
[018h 0024   4]                 Oem Revision : 00000001
[01Ch 0028   4]              Asl Compiler ID : "1025"
[020h 0032   4]        Asl Compiler Revision : 00040000

[024h 0036   2]                      Version : 0001
[026h 0038   1]                       Status : 01
[027h 0039   1]                   Image Type : 00
[028h 0040   8]                Image Address : 00000000A335D000
[030h 0048   4]                Image OffsetX : 0000019A
[034h 0052   4]                Image OffsetY : 0000008C

Raw Table Data: Length 56 (0x38)

  0000: 42 47 52 54 38 00 00 00 01 D2 41 43 52 53 59 53  BGRT8.....ACRSYS
  0010: 41 43 52 50 52 44 43 54 01 00 00 00 31 30 32 35  ACRPRDCT....1025
  0020: 00 00 04 00 01 00 01 00 00 D0 35 A3 00 00 00 00  ..........5.....
  0030: 9A 01 00 00 8C 00 00 00                          ........
